target datalayout = "e-m:e-p270:32:32-p271:32:32-p272:64:64-i64:64-i128:128-f80:128-n8:16:32:64-S128"
target triple = "x86_64-pc-linux-gnu"

%struct.redisObject = type { i32, i32, ptr }
%struct.sdshdr8 = type { i8, i8, i8, [0 x i8] }
%struct.sdshdr16 = type <{ i16, i16, i8, [0 x i8] }>
%struct.sdshdr32 = type <{ i32, i32, i8, [0 x i8] }>
%struct.sdshdr64 = type <{ i64, i64, i8, [0 x i8] }>

@.str.93 = private unnamed_addr constant [68 x i8] c"Client names cannot contain spaces, newlines or special characters.\00", align 1

; Function Attrs: nounwind uwtable
define dso_local i32 @validateClientAttr(ptr noundef %0) #0 {
  %2 = alloca i32, align 4
  %3 = alloca ptr, align 8
  store ptr %0, ptr %3, align 8, !tbaa !5
  br label %4

4:                                                ; preds = %19, %1
  %5 = load ptr, ptr %3, align 8, !tbaa !5
  %6 = load i8, ptr %5, align 1, !tbaa !16
  %7 = icmp ne i8 %6, 0
  br i1 %7, label %8, label %22

8:                                                ; preds = %4
  %9 = load ptr, ptr %3, align 8, !tbaa !5
  %10 = load i8, ptr %9, align 1, !tbaa !16
  %11 = sext i8 %10 to i32
  %12 = icmp slt i32 %11, 33
  br i1 %12, label %18, label %13

13:                                               ; preds = %8
  %14 = load ptr, ptr %3, align 8, !tbaa !5
  %15 = load i8, ptr %14, align 1, !tbaa !16
  %16 = sext i8 %15 to i32
  %17 = icmp sgt i32 %16, 126
  br i1 %17, label %18, label %19

18:                                               ; preds = %13, %8
  store i32 -1, ptr %2, align 4
  br label %23

19:                                               ; preds = %13
  %20 = load ptr, ptr %3, align 8, !tbaa !5
  %21 = getelementptr inbounds nuw i8, ptr %20, i32 1
  store ptr %21, ptr %3, align 8, !tbaa !5
  br label %4, !llvm.loop !279

22:                                               ; preds = %4
  store i32 0, ptr %2, align 4
  br label %23

23:                                               ; preds = %22, %18
  %24 = load i32, ptr %2, align 4
  ret i32 %24
}

; Function Attrs: inlinehint nounwind uwtable
define internal i64 @sdslen(ptr noundef %0) #4 {
  %2 = alloca i64, align 8
  %3 = alloca ptr, align 8
  %4 = alloca i8, align 1
  %5 = alloca i32, align 4
  store ptr %0, ptr %3, align 8, !tbaa !5
  call void @llvm.lifetime.start.p0(i64 1, ptr %4) #16
  %6 = load ptr, ptr %3, align 8, !tbaa !5
  %7 = getelementptr inbounds i8, ptr %6, i64 -1
  %8 = load i8, ptr %7, align 1, !tbaa !16
  store i8 %8, ptr %4, align 1, !tbaa !16
  %9 = load i8, ptr %4, align 1, !tbaa !16
  %10 = zext i8 %9 to i32
  %11 = and i32 %10, 7
  switch i32 %11, label %40 [
    i32 0, label %12
    i32 1, label %17
    i32 2, label %23
    i32 3, label %29
    i32 4, label %35
  ]

12:                                               ; preds = %1
  %13 = load i8, ptr %4, align 1, !tbaa !16
  %14 = zext i8 %13 to i32
  %15 = ashr i32 %14, 3
  %16 = sext i32 %15 to i64
  store i64 %16, ptr %2, align 8
  store i32 1, ptr %5, align 4
  br label %41

17:                                               ; preds = %1
  %18 = load ptr, ptr %3, align 8, !tbaa !5
  %19 = getelementptr inbounds i8, ptr %18, i64 -3
  %20 = getelementptr inbounds nuw %struct.sdshdr8, ptr %19, i32 0, i32 0
  %21 = load i8, ptr %20, align 1, !tbaa !16
  %22 = zext i8 %21 to i64
  store i64 %22, ptr %2, align 8
  store i32 1, ptr %5, align 4
  br label %41

23:                                               ; preds = %1
  %24 = load ptr, ptr %3, align 8, !tbaa !5
  %25 = getelementptr inbounds i8, ptr %24, i64 -5
  %26 = getelementptr inbounds nuw %struct.sdshdr16, ptr %25, i32 0, i32 0
  %27 = load i16, ptr %26, align 1, !tbaa !17
  %28 = zext i16 %27 to i64
  store i64 %28, ptr %2, align 8
  store i32 1, ptr %5, align 4
  br label %41

29:                                               ; preds = %1
  %30 = load ptr, ptr %3, align 8, !tbaa !5
  %31 = getelementptr inbounds i8, ptr %30, i64 -9
  %32 = getelementptr inbounds nuw %struct.sdshdr32, ptr %31, i32 0, i32 0
  %33 = load i32, ptr %32, align 1, !tbaa !19
  %34 = zext i32 %33 to i64
  store i64 %34, ptr %2, align 8
  store i32 1, ptr %5, align 4
  br label %41

35:                                               ; preds = %1
  %36 = load ptr, ptr %3, align 8, !tbaa !5
  %37 = getelementptr inbounds i8, ptr %36, i64 -17
  %38 = getelementptr inbounds nuw %struct.sdshdr64, ptr %37, i32 0, i32 0
  %39 = load i64, ptr %38, align 1, !tbaa !20
  store i64 %39, ptr %2, align 8
  store i32 1, ptr %5, align 4
  br label %41

40:                                               ; preds = %1
  store i64 0, ptr %2, align 8
  store i32 1, ptr %5, align 4
  br label %41

41:                                               ; preds = %40, %35, %29, %23, %17, %12
  call void @llvm.lifetime.end.p0(i64 1, ptr %4) #16
  %42 = load i64, ptr %2, align 8
  ret i64 %42
}

; Function Attrs: nounwind uwtable
define dso_local i32 @validateClientName(ptr noundef %0, ptr noundef %1) #0 {
  %3 = alloca i32, align 4
  %4 = alloca ptr, align 8
  %5 = alloca ptr, align 8
  %6 = alloca ptr, align 8
  %7 = alloca i32, align 4
  %8 = alloca i32, align 4
  store ptr %0, ptr %4, align 8, !tbaa !11
  store ptr %1, ptr %5, align 8, !tbaa !204
  call void @llvm.lifetime.start.p0(i64 8, ptr %6) #16
  store ptr @.str.93, ptr %6, align 8, !tbaa !5
  call void @llvm.lifetime.start.p0(i64 4, ptr %7) #16
  %9 = load ptr, ptr %4, align 8, !tbaa !11
  %10 = icmp ne ptr %9, null
  br i1 %10, label %11, label %16

11:                                               ; preds = %2
  %12 = load ptr, ptr %4, align 8, !tbaa !11
  %13 = getelementptr inbounds nuw %struct.redisObject, ptr %12, i32 0, i32 2
  %14 = load ptr, ptr %13, align 8, !tbaa !13
  %15 = call i64 @sdslen(ptr noundef %14)
  br label %17

16:                                               ; preds = %2
  br label %17

17:                                               ; preds = %16, %11
  %18 = phi i64 [ %15, %11 ], [ 0, %16 ]
  %19 = trunc i64 %18 to i32
  store i32 %19, ptr %7, align 4, !tbaa !19
  %20 = load i32, ptr %7, align 4, !tbaa !19
  %21 = icmp eq i32 %20, 0
  br i1 %21, label %22, label %23

22:                                               ; preds = %17
  store i32 0, ptr %3, align 4
  store i32 1, ptr %8, align 4
  br label %37

23:                                               ; preds = %17
  %24 = load ptr, ptr %4, align 8, !tbaa !11
  %25 = getelementptr inbounds nuw %struct.redisObject, ptr %24, i32 0, i32 2
  %26 = load ptr, ptr %25, align 8, !tbaa !13
  %27 = call i32 @validateClientAttr(ptr noundef %26)
  %28 = icmp eq i32 %27, -1
  br i1 %28, label %29, label %36

29:                                               ; preds = %23
  %30 = load ptr, ptr %5, align 8, !tbaa !204
  %31 = icmp ne ptr %30, null
  br i1 %31, label %32, label %35

32:                                               ; preds = %29
  %33 = load ptr, ptr %6, align 8, !tbaa !5
  %34 = load ptr, ptr %5, align 8, !tbaa !204
  store ptr %33, ptr %34, align 8, !tbaa !5
  br label %35

35:                                               ; preds = %32, %29
  store i32 -1, ptr %3, align 4
  store i32 1, ptr %8, align 4
  br label %37

36:                                               ; preds = %23
  store i32 0, ptr %3, align 4
  store i32 1, ptr %8, align 4
  br label %37

37:                                               ; preds = %36, %35, %22
  call void @llvm.lifetime.end.p0(i64 4, ptr %7) #16
  call void @llvm.lifetime.end.p0(i64 8, ptr %6) #16
  %38 = load i32, ptr %3, align 4
  ret i32 %38
}