; Function Attrs: nofree norecurse nosync nounwind memory(read, argmem: readwrite, inaccessiblemem: none) uwtable
define dso_local range(i32 -1, 1) i32 @validateClientName(ptr noundef readonly captures(address_is_null) %0, ptr noundef writeonly captures(address_is_null) %1) local_unnamed_addr #19 {
  %.not = icmp eq ptr %0, null
  br i1 %.not, label %.critedge, label %3

3:                                                ; preds = %2
  %4 = getelementptr inbounds nuw i8, ptr %0, i64 8
  %5 = load ptr, ptr %4, align 8, !tbaa !6
  %6 = getelementptr inbounds i8, ptr %5, i64 -1
  %7 = load i8, ptr %6, align 1, !tbaa !12
  %8 = zext i8 %7 to i32
  %9 = and i32 %8, 7
  switch i32 %9, label %.critedge [
    i32 0, label %10
    i32 1, label %13
    i32 2, label %17
    i32 3, label %21
    i32 4, label %25
  ]

10:                                               ; preds = %3
  %11 = lshr i32 %8, 3
  %12 = zext nneg i32 %11 to i64
  br label %sdslen.exit

13:                                               ; preds = %3
  %14 = getelementptr inbounds i8, ptr %5, i64 -3
  %15 = load i8, ptr %14, align 1, !tbaa !12
  %16 = zext i8 %15 to i64
  br label %sdslen.exit

17:                                               ; preds = %3
  %18 = getelementptr inbounds i8, ptr %5, i64 -5
  %19 = load i16, ptr %18, align 1, !tbaa !13
  %20 = zext i16 %19 to i64
  br label %sdslen.exit

21:                                               ; preds = %3
  %22 = getelementptr inbounds i8, ptr %5, i64 -9
  %23 = load i32, ptr %22, align 1, !tbaa !15
  %24 = zext i32 %23 to i64
  br label %sdslen.exit

25:                                               ; preds = %3
  %26 = getelementptr inbounds i8, ptr %5, i64 -17
  %27 = load i64, ptr %26, align 1, !tbaa !16
  br label %sdslen.exit

sdslen.exit:                                      ; preds = %10, %13, %17, %21, %25
  %.0.i = phi i64 [ %27, %25 ], [ %24, %21 ], [ %20, %17 ], [ %16, %13 ], [ %12, %10 ]
  %28 = and i64 %.0.i, 4294967295
  %29 = icmp eq i64 %28, 0
  br i1 %29, label %.critedge, label %30

30:                                               ; preds = %sdslen.exit
  %31 = load i8, ptr %5, align 1, !tbaa !12
  %.not7.i = icmp eq i8 %31, 0
  br i1 %.not7.i, label %.critedge, label %.lr.ph.i

32:                                               ; preds = %.lr.ph.i
  %33 = getelementptr inbounds nuw i8, ptr %.08.i, i64 1
  %34 = load i8, ptr %33, align 1, !tbaa !12
  %.not.i = icmp eq i8 %34, 0
  br i1 %.not.i, label %.critedge, label %.lr.ph.i, !llvm.loop !238

.lr.ph.i:                                         ; preds = %30, %32
  %35 = phi i8 [ %34, %32 ], [ %31, %30 ]
  %.08.i = phi ptr [ %33, %32 ], [ %5, %30 ]
  %36 = add i8 %35, -127
  %or.cond.i = icmp ult i8 %36, -94
  br i1 %or.cond.i, label %validateClientAttr.exit, label %32

validateClientAttr.exit:                          ; preds = %.lr.ph.i
  %.not9 = icmp eq ptr %1, null
  br i1 %.not9, label %.critedge, label %37

37:                                               ; preds = %validateClientAttr.exit
  store ptr @.str.93, ptr %1, align 8, !tbaa !107
  br label %.critedge

.critedge:                                        ; preds = %32, %30, %3, %2, %validateClientAttr.exit, %37, %sdslen.exit
  %.0 = phi i32 [ 0, %sdslen.exit ], [ -1, %37 ], [ -1, %validateClientAttr.exit ], [ 0, %2 ], [ 0, %3 ], [ 0, %30 ], [ 0, %32 ]
  ret i32 %.0
}